target datalayout = "e-m:e-p270:32:32-p271:32:32-p272:64:64-i64:64-i128:128-f80:128-n8:16:32:64-S128"
target triple = "x86_64-pc-linux-gnu"

%"class.rocksdb::BlockBuilder" = type { i32, i8, i8, i64, i8, %"class.std::__cxx11::basic_string", %"class.std::vector", i64, i32, i8, %"class.std::__cxx11::basic_string", %"class.rocksdb::DataBlockHashIndexBuilder" }
%"class.std::vector" = type { %"struct.std::_Vector_base" }
%"struct.std::_Vector_base" = type { %"struct.std::_Vector_base<unsigned int, std::allocator<unsigned int>>::_Vector_impl" }
%"struct.std::_Vector_base<unsigned int, std::allocator<unsigned int>>::_Vector_impl" = type { %"struct.std::_Vector_base<unsigned int, std::allocator<unsigned int>>::_Vector_impl_data" }
%"struct.std::_Vector_base<unsigned int, std::allocator<unsigned int>>::_Vector_impl_data" = type { ptr, ptr, ptr }
%"class.std::__cxx11::basic_string" = type { %"struct.std::__cxx11::basic_string<char>::_Alloc_hider", i64, %union.anon }
%"struct.std::__cxx11::basic_string<char>::_Alloc_hider" = type { ptr }
%union.anon = type { i64, [8 x i8] }
%"class.rocksdb::DataBlockHashIndexBuilder" = type { double, double, i8, %"class.std::vector.3" }
%"class.std::vector.3" = type { %"struct.std::_Vector_base.4" }
%"struct.std::_Vector_base.4" = type { %"struct.std::_Vector_base<std::pair<unsigned int, unsigned char>, std::allocator<std::pair<unsigned int, unsigned char>>>::_Vector_impl" }
%"struct.std::_Vector_base<std::pair<unsigned int, unsigned char>, std::allocator<std::pair<unsigned int, unsigned char>>>::_Vector_impl" = type { %"struct.std::_Vector_base<std::pair<unsigned int, unsigned char>, std::allocator<std::pair<unsigned int, unsigned char>>>::_Vector_impl_data" }
%"struct.std::_Vector_base<std::pair<unsigned int, unsigned char>, std::allocator<std::pair<unsigned int, unsigned char>>>::_Vector_impl_data" = type { ptr, ptr, ptr }

; Function Attrs: mustprogress nounwind uwtable
define linkonce_odr void @_ZNSt12_Destroy_auxILb1EE9__destroyIPjEEvT_S3_(ptr noundef %0, ptr noundef %1) #4 comdat align 2 {
  %3 = alloca ptr, align 8
  %4 = alloca ptr, align 8
  store ptr %0, ptr %3, align 8, !tbaa !57
  store ptr %1, ptr %4, align 8, !tbaa !57
  ret void
}

; Function Attrs: inlinehint mustprogress uwtable
define linkonce_odr void @_ZSt8_DestroyIPjEvT_S1_(ptr noundef %0, ptr noundef %1) #3 comdat {
  %3 = alloca ptr, align 8
  %4 = alloca ptr, align 8
  store ptr %0, ptr %3, align 8, !tbaa !57
  store ptr %1, ptr %4, align 8, !tbaa !57
  %5 = load ptr, ptr %3, align 8, !tbaa !57
  %6 = load ptr, ptr %4, align 8, !tbaa !57
  call void @_ZNSt12_Destroy_auxILb1EE9__destroyIPjEEvT_S3_(ptr noundef %5, ptr noundef %6)
  ret void
}

; Function Attrs: inlinehint mustprogress uwtable
define linkonce_odr void @_ZSt8_DestroyIPjjEvT_S1_RSaIT0_E(ptr noundef %0, ptr noundef %1, ptr noundef nonnull align 1 dereferenceable(1) %2) #3 comdat {
  %4 = alloca ptr, align 8
  %5 = alloca ptr, align 8
  %6 = alloca ptr, align 8
  store ptr %0, ptr %4, align 8, !tbaa !57
  store ptr %1, ptr %5, align 8, !tbaa !57
  store ptr %2, ptr %6, align 8, !tbaa !53
  %7 = load ptr, ptr %4, align 8, !tbaa !57
  %8 = load ptr, ptr %5, align 8, !tbaa !57
  call void @_ZSt8_DestroyIPjEvT_S1_(ptr noundef %7, ptr noundef %8)
  ret void
}

; Function Attrs: mustprogress nounwind uwtable
define linkonce_odr noundef nonnull align 1 dereferenceable(1) ptr @_ZNSt12_Vector_baseIjSaIjEE19_M_get_Tp_allocatorEv(ptr noundef nonnull align 8 dereferenceable(24) %0) #4 comdat align 2 {
  %2 = alloca ptr, align 8
  store ptr %0, ptr %2, align 8, !tbaa !101
  %3 = load ptr, ptr %2, align 8
  %4 = getelementptr inbounds nuw %"struct.std::_Vector_base", ptr %3, i32 0, i32 0
  ret ptr %4
}

; Function Attrs: mustprogress nounwind uwtable
define linkonce_odr void @_ZNSt11char_traitsIcE6assignERcRKc(ptr noundef nonnull align 1 dereferenceable(1) %0, ptr noundef nonnull align 1 dereferenceable(1) %1) #4 comdat align 2 {
  %3 = alloca ptr, align 8
  %4 = alloca ptr, align 8
  store ptr %0, ptr %3, align 8, !tbaa !69
  store ptr %1, ptr %4, align 8, !tbaa !69
  %5 = load ptr, ptr %4, align 8, !tbaa !69
  %6 = load i8, ptr %5, align 1, !tbaa !94
  %7 = load ptr, ptr %3, align 8, !tbaa !69
  store i8 %6, ptr %7, align 1, !tbaa !94
  ret void
}

; Function Attrs: mustprogress nounwind uwtable
define available_externally noundef ptr @_ZNKSt7__cxx1112basic_stringIcSt11char_traitsIcESaIcEE7_M_dataEv(ptr noundef nonnull align 8 dereferenceable(32) %0) #4 align 2 {
  %2 = alloca ptr, align 8
  store ptr %0, ptr %2, align 8, !tbaa !51
  %3 = load ptr, ptr %2, align 8
  %4 = getelementptr inbounds nuw %"class.std::__cxx11::basic_string", ptr %3, i32 0, i32 0
  %5 = getelementptr inbounds nuw %"struct.std::__cxx11::basic_string<char>::_Alloc_hider", ptr %4, i32 0, i32 0
  %6 = load ptr, ptr %5, align 8, !tbaa !93
  ret ptr %6
}

; Function Attrs: mustprogress nounwind uwtable
define available_externally void @_ZNSt7__cxx1112basic_stringIcSt11char_traitsIcESaIcEE9_M_lengthEm(ptr noundef nonnull align 8 dereferenceable(32) %0, i64 noundef %1) #4 align 2 {
  %3 = alloca ptr, align 8
  %4 = alloca i64, align 8
  store ptr %0, ptr %3, align 8, !tbaa !51
  store i64 %1, ptr %4, align 8, !tbaa !4
  %5 = load ptr, ptr %3, align 8
  %6 = load i64, ptr %4, align 8, !tbaa !4
  %7 = getelementptr inbounds nuw %"class.std::__cxx11::basic_string", ptr %5, i32 0, i32 1
  store i64 %6, ptr %7, align 8, !tbaa !70
  ret void
}

; Function Attrs: mustprogress nounwind uwtable
define linkonce_odr void @_ZNSt6vectorIjSaIjEE15_M_erase_at_endEPj(ptr noundef nonnull align 8 dereferenceable(24) %0, ptr noundef %1) #4 comdat align 2 personality ptr @__gxx_personality_v0 {
  %3 = alloca ptr, align 8
  %4 = alloca ptr, align 8
  %5 = alloca i64, align 8
  store ptr %0, ptr %3, align 8, !tbaa !55
  store ptr %1, ptr %4, align 8, !tbaa !57
  %6 = load ptr, ptr %3, align 8
  call void @llvm.lifetime.start.p0(i64 8, ptr %5) #15
  %7 = getelementptr inbounds nuw %"struct.std::_Vector_base", ptr %6, i32 0, i32 0
  %8 = getelementptr inbounds nuw %"struct.std::_Vector_base<unsigned int, std::allocator<unsigned int>>::_Vector_impl_data", ptr %7, i32 0, i32 1
  %9 = load ptr, ptr %8, align 8, !tbaa !64
  %10 = load ptr, ptr %4, align 8, !tbaa !57
  %11 = ptrtoint ptr %9 to i64
  %12 = ptrtoint ptr %10 to i64
  %13 = sub i64 %11, %12
  %14 = sdiv exact i64 %13, 4
  store i64 %14, ptr %5, align 8, !tbaa !4
  %15 = load i64, ptr %5, align 8, !tbaa !4
  %16 = icmp ne i64 %15, 0
  br i1 %16, label %17, label %27

17:                                               ; preds = %2
  %18 = load ptr, ptr %4, align 8, !tbaa !57
  %19 = getelementptr inbounds nuw %"struct.std::_Vector_base", ptr %6, i32 0, i32 0
  %20 = getelementptr inbounds nuw %"struct.std::_Vector_base<unsigned int, std::allocator<unsigned int>>::_Vector_impl_data", ptr %19, i32 0, i32 1
  %21 = load ptr, ptr %20, align 8, !tbaa !64
  %22 = call noundef nonnull align 1 dereferenceable(1) ptr @_ZNSt12_Vector_baseIjSaIjEE19_M_get_Tp_allocatorEv(ptr noundef nonnull align 8 dereferenceable(24) %6) #15
  invoke void @_ZSt8_DestroyIPjjEvT_S1_RSaIT0_E(ptr noundef %18, ptr noundef %21, ptr noundef nonnull align 1 dereferenceable(1) %22)
          to label %23 unwind label %28

23:                                               ; preds = %17
  %24 = load ptr, ptr %4, align 8, !tbaa !57
  %25 = getelementptr inbounds nuw %"struct.std::_Vector_base", ptr %6, i32 0, i32 0
  %26 = getelementptr inbounds nuw %"struct.std::_Vector_base<unsigned int, std::allocator<unsigned int>>::_Vector_impl_data", ptr %25, i32 0, i32 1
  store ptr %24, ptr %26, align 8, !tbaa !64
  br label %27

27:                                               ; preds = %23, %2
  call void @llvm.lifetime.end.p0(i64 8, ptr %5) #15
  ret void

28:                                               ; preds = %17
  %29 = landingpad { ptr, i32 }
          catch ptr null
  %30 = extractvalue { ptr, i32 } %29, 0
  call void @__clang_call_terminate(ptr %30) #16
  unreachable
}

; Function Attrs: mustprogress nounwind uwtable
define linkonce_odr noundef i64 @_ZNKSt6vectorIjSaIjEE4sizeEv(ptr noundef nonnull align 8 dereferenceable(24) %0) #4 comdat align 2 {
  %2 = alloca ptr, align 8
  store ptr %0, ptr %2, align 8, !tbaa !55
  %3 = load ptr, ptr %2, align 8
  %4 = getelementptr inbounds nuw %"struct.std::_Vector_base", ptr %3, i32 0, i32 0
  %5 = getelementptr inbounds nuw %"struct.std::_Vector_base<unsigned int, std::allocator<unsigned int>>::_Vector_impl_data", ptr %4, i32 0, i32 1
  %6 = load ptr, ptr %5, align 8, !tbaa !64
  %7 = getelementptr inbounds nuw %"struct.std::_Vector_base", ptr %3, i32 0, i32 0
  %8 = getelementptr inbounds nuw %"struct.std::_Vector_base<unsigned int, std::allocator<unsigned int>>::_Vector_impl_data", ptr %7, i32 0, i32 0
  %9 = load ptr, ptr %8, align 8, !tbaa !63
  %10 = ptrtoint ptr %6 to i64
  %11 = ptrtoint ptr %9 to i64
  %12 = sub i64 %10, %11
  %13 = sdiv exact i64 %12, 4
  ret i64 %13
}

; Function Attrs: noinline noreturn nounwind uwtable
define linkonce_odr hidden void @__clang_call_terminate(ptr noundef %0) #8 comdat {
  %2 = call ptr @__cxa_begin_catch(ptr %0) #15
  call void @_ZSt9terminatev() #16
  unreachable
}

; Function Attrs: mustprogress uwtable
define available_externally void @_ZNSt7__cxx1112basic_stringIcSt11char_traitsIcESaIcEE13_M_set_lengthEm(ptr noundef nonnull align 8 dereferenceable(32) %0, i64 noundef %1) #5 align 2 {
  %3 = alloca ptr, align 8
  %4 = alloca i64, align 8
  %5 = alloca i8, align 1
  store ptr %0, ptr %3, align 8, !tbaa !51
  store i64 %1, ptr %4, align 8, !tbaa !4
  %6 = load ptr, ptr %3, align 8
  %7 = load i64, ptr %4, align 8, !tbaa !4
  call void @_ZNSt7__cxx1112basic_stringIcSt11char_traitsIcESaIcEE9_M_lengthEm(ptr noundef nonnull align 8 dereferenceable(32) %6, i64 noundef %7)
  %8 = call noundef ptr @_ZNKSt7__cxx1112basic_stringIcSt11char_traitsIcESaIcEE7_M_dataEv(ptr noundef nonnull align 8 dereferenceable(32) %6)
  %9 = load i64, ptr %4, align 8, !tbaa !4
  %10 = getelementptr inbounds nuw i8, ptr %8, i64 %9
  call void @llvm.lifetime.start.p0(i64 1, ptr %5) #15
  store i8 0, ptr %5, align 1, !tbaa !94
  call void @_ZNSt11char_traitsIcE6assignERcRKc(ptr noundef nonnull align 1 dereferenceable(1) %10, ptr noundef nonnull align 1 dereferenceable(1) %5) #15
  call void @llvm.lifetime.end.p0(i64 1, ptr %5) #15
  ret void
}

; Function Attrs: inlinehint mustprogress nounwind uwtable
define linkonce_odr noundef zeroext i1 @_ZNK7rocksdb25DataBlockHashIndexBuilder5ValidEv(ptr noundef nonnull align 8 dereferenceable(48) %0) #1 comdat align 2 {
  %2 = alloca ptr, align 8
  store ptr %0, ptr %2, align 8, !tbaa !58
  %3 = load ptr, ptr %2, align 8
  %4 = getelementptr inbounds nuw %"class.rocksdb::DataBlockHashIndexBuilder", ptr %3, i32 0, i32 2
  %5 = load i8, ptr %4, align 8, !tbaa !62, !range !42, !noundef !43
  %6 = trunc i8 %5 to i1
  br i1 %6, label %7, label %11

7:                                                ; preds = %1
  %8 = getelementptr inbounds nuw %"class.rocksdb::DataBlockHashIndexBuilder", ptr %3, i32 0, i32 0
  %9 = load double, ptr %8, align 8, !tbaa !60
  %10 = fcmp ogt double %9, 0.000000e+00
  br label %11

11:                                               ; preds = %7, %1
  %12 = phi i1 [ false, %1 ], [ %10, %7 ]
  ret i1 %12
}

; Function Attrs: mustprogress uwtable
define linkonce_odr void @_ZNSt6vectorIjSaIjEE6resizeEm(ptr noundef nonnull align 8 dereferenceable(24) %0, i64 noundef %1) #5 comdat align 2 {
  %3 = alloca ptr, align 8
  %4 = alloca i64, align 8
  store ptr %0, ptr %3, align 8, !tbaa !55
  store i64 %1, ptr %4, align 8, !tbaa !4
  %5 = load ptr, ptr %3, align 8
  %6 = load i64, ptr %4, align 8, !tbaa !4
  %7 = call noundef i64 @_ZNKSt6vectorIjSaIjEE4sizeEv(ptr noundef nonnull align 8 dereferenceable(24) %5) #15
  %8 = icmp ugt i64 %6, %7
  br i1 %8, label %9, label %13

9:                                                ; preds = %2
  %10 = load i64, ptr %4, align 8, !tbaa !4
  %11 = call noundef i64 @_ZNKSt6vectorIjSaIjEE4sizeEv(ptr noundef nonnull align 8 dereferenceable(24) %5) #15
  %12 = sub i64 %10, %11
  call void @_ZNSt6vectorIjSaIjEE17_M_default_appendEm(ptr noundef nonnull align 8 dereferenceable(24) %5, i64 noundef %12)
  br label %24

13:                                               ; preds = %2
  %14 = load i64, ptr %4, align 8, !tbaa !4
  %15 = call noundef i64 @_ZNKSt6vectorIjSaIjEE4sizeEv(ptr noundef nonnull align 8 dereferenceable(24) %5) #15
  %16 = icmp ult i64 %14, %15
  br i1 %16, label %17, label %23

17:                                               ; preds = %13
  %18 = getelementptr inbounds nuw %"struct.std::_Vector_base", ptr %5, i32 0, i32 0
  %19 = getelementptr inbounds nuw %"struct.std::_Vector_base<unsigned int, std::allocator<unsigned int>>::_Vector_impl_data", ptr %18, i32 0, i32 0
  %20 = load ptr, ptr %19, align 8, !tbaa !63
  %21 = load i64, ptr %4, align 8, !tbaa !4
  %22 = getelementptr inbounds nuw i32, ptr %20, i64 %21
  call void @_ZNSt6vectorIjSaIjEE15_M_erase_at_endEPj(ptr noundef nonnull align 8 dereferenceable(24) %5, ptr noundef %22) #15
  br label %23

23:                                               ; preds = %17, %13
  br label %24

24:                                               ; preds = %23, %9
  ret void
}

; Function Attrs: mustprogress nounwind uwtable
define available_externally void @_ZNSt7__cxx1112basic_stringIcSt11char_traitsIcESaIcEE5clearEv(ptr noundef nonnull align 8 dereferenceable(32) %0) #4 align 2 personality ptr @__gxx_personality_v0 {
  %2 = alloca ptr, align 8
  store ptr %0, ptr %2, align 8, !tbaa !51
  %3 = load ptr, ptr %2, align 8
  invoke void @_ZNSt7__cxx1112basic_stringIcSt11char_traitsIcESaIcEE13_M_set_lengthEm(ptr noundef nonnull align 8 dereferenceable(32) %3, i64 noundef 0)
          to label %4 unwind label %5

4:                                                ; preds = %1
  ret void

5:                                                ; preds = %1
  %6 = landingpad { ptr, i32 }
          catch ptr null
  %7 = extractvalue { ptr, i32 } %6, 0
  call void @__clang_call_terminate(ptr %7) #16
  unreachable
}

; Function Attrs: mustprogress uwtable
define void @_ZN7rocksdb12BlockBuilder5ResetEv(ptr noundef nonnull align 8 dereferenceable(176) %0) #5 align 2 {
  %2 = alloca ptr, align 8
  store ptr %0, ptr %2, align 8, !tbaa !17
  %3 = load ptr, ptr %2, align 8
  %4 = getelementptr inbounds nuw %"class.rocksdb::BlockBuilder", ptr %3, i32 0, i32 5
  call void @_ZNSt7__cxx1112basic_stringIcSt11char_traitsIcESaIcEE5clearEv(ptr noundef nonnull align 8 dereferenceable(32) %4) #15
  %5 = getelementptr inbounds nuw %"class.rocksdb::BlockBuilder", ptr %3, i32 0, i32 6
  call void @_ZNSt6vectorIjSaIjEE6resizeEm(ptr noundef nonnull align 8 dereferenceable(24) %5, i64 noundef 1)
  %6 = getelementptr inbounds nuw %"class.rocksdb::BlockBuilder", ptr %3, i32 0, i32 7
  store i64 8, ptr %6, align 8, !tbaa !50
  %7 = getelementptr inbounds nuw %"class.rocksdb::BlockBuilder", ptr %3, i32 0, i32 8
  store i32 0, ptr %7, align 8, !tbaa !48
  %8 = getelementptr inbounds nuw %"class.rocksdb::BlockBuilder", ptr %3, i32 0, i32 9
  store i8 0, ptr %8, align 4, !tbaa !49
  %9 = getelementptr inbounds nuw %"class.rocksdb::BlockBuilder", ptr %3, i32 0, i32 10
  call void @_ZNSt7__cxx1112basic_stringIcSt11char_traitsIcESaIcEE5clearEv(ptr noundef nonnull align 8 dereferenceable(32) %9) #15
  %10 = getelementptr inbounds nuw %"class.rocksdb::BlockBuilder", ptr %3, i32 0, i32 11
  %11 = call noundef zeroext i1 @_ZNK7rocksdb25DataBlockHashIndexBuilder5ValidEv(ptr noundef nonnull align 8 dereferenceable(48) %10)
  br i1 %11, label %12, label %14

12:                                               ; preds = %1
  %13 = getelementptr inbounds nuw %"class.rocksdb::BlockBuilder", ptr %3, i32 0, i32 11
  call void @_ZN7rocksdb25DataBlockHashIndexBuilder5ResetEv(ptr noundef nonnull align 8 dereferenceable(48) %13)
  br label %14

14:                                               ; preds = %12, %1
  ret void
}