; Function Attrs: mustprogress uwtable
define void @_ZN7rocksdb12BlockBuilder5ResetEv(ptr noundef nonnull align 8 dereferenceable(176) initializes((32, 40)) %0) local_unnamed_addr #1 align 2 personality ptr @__gxx_personality_v0 {
  %2 = getelementptr inbounds nuw i8, ptr %0, i64 24
  %3 = getelementptr inbounds nuw i8, ptr %0, i64 32
  store i64 0, ptr %3, align 8, !tbaa !32
  %4 = load ptr, ptr %2, align 8, !tbaa !44
  store i8 0, ptr %4, align 1, !tbaa !33
  %5 = getelementptr inbounds nuw i8, ptr %0, i64 56
  %6 = getelementptr inbounds nuw i8, ptr %0, i64 64
  %7 = load ptr, ptr %6, align 8, !tbaa !37
  %8 = load ptr, ptr %5, align 8, !tbaa !34
  %9 = ptrtoint ptr %7 to i64
  %10 = ptrtoint ptr %8 to i64
  %11 = sub i64 %9, %10
  %12 = ashr exact i64 %11, 2
  %13 = icmp eq ptr %7, %8
  br i1 %13, label %14, label %16

14:                                               ; preds = %1
  %15 = sub nuw nsw i64 1, %12
  tail call void @_ZNSt6vectorIjSaIjEE17_M_default_appendEm(ptr noundef nonnull align 8 dereferenceable(24) %5, i64 noundef %15)
  br label %_ZNSt6vectorIjSaIjEE6resizeEm.exit

16:                                               ; preds = %1
  %17 = icmp ugt i64 %12, 1
  br i1 %17, label %18, label %_ZNSt6vectorIjSaIjEE6resizeEm.exit

18:                                               ; preds = %16
  %19 = getelementptr inbounds nuw i8, ptr %8, i64 4
  %.not.i.i = icmp eq ptr %7, %19
  br i1 %.not.i.i, label %_ZNSt6vectorIjSaIjEE6resizeEm.exit, label %20

20:                                               ; preds = %18
  store ptr %19, ptr %6, align 8, !tbaa !37
  br label %_ZNSt6vectorIjSaIjEE6resizeEm.exit

_ZNSt6vectorIjSaIjEE6resizeEm.exit:               ; preds = %14, %16, %18, %20
  %21 = getelementptr inbounds nuw i8, ptr %0, i64 80
  store i64 8, ptr %21, align 8, !tbaa !43
  %22 = getelementptr inbounds nuw i8, ptr %0, i64 88
  store i32 0, ptr %22, align 8, !tbaa !38
  %23 = getelementptr inbounds nuw i8, ptr %0, i64 92
  store i8 0, ptr %23, align 4, !tbaa !39
  %24 = getelementptr inbounds nuw i8, ptr %0, i64 96
  %25 = getelementptr inbounds nuw i8, ptr %0, i64 104
  store i64 0, ptr %25, align 8, !tbaa !32
  %26 = load ptr, ptr %24, align 8, !tbaa !44
  store i8 0, ptr %26, align 1, !tbaa !33
  %27 = getelementptr inbounds nuw i8, ptr %0, i64 128
  %28 = getelementptr inbounds nuw i8, ptr %0, i64 144
  %29 = load i8, ptr %28, align 8, !tbaa !42, !range !45, !noundef !46
  %30 = trunc nuw i8 %29 to i1
  %31 = load double, ptr %27, align 8
  %32 = fcmp ogt double %31, 0.000000e+00
  %33 = select i1 %30, i1 %32, i1 false
  br i1 %33, label %34, label %35

34:                                               ; preds = %_ZNSt6vectorIjSaIjEE6resizeEm.exit
  tail call void @_ZN7rocksdb25DataBlockHashIndexBuilder5ResetEv(ptr noundef nonnull align 8 dereferenceable(48) %27)
  br label %35

35:                                               ; preds = %34, %_ZNSt6vectorIjSaIjEE6resizeEm.exit
  ret void
}